target datalayout = "e-m:e-p270:32:32-p271:32:32-p272:64:64-i64:64-i128:128-f80:128-n8:16:32:64-S128"
target triple = "x86_64-pc-linux-gnu"

%struct.CPpmd8 = type { ptr, ptr, ptr, i32, i32, i32, i32, i32, i32, i32, i32, ptr, ptr, ptr, ptr, ptr, i32, i32, i32, i32, i32, %union.anon, [38 x i8], [128 x i8], [38 x i32], [38 x i32], [256 x i8], [260 x i8], %struct.CPpmd_See, [24 x [32 x %struct.CPpmd_See]], [25 x [64 x i16]] }
%union.anon = type { ptr }
%struct.CPpmd_See = type { i16, i8, i8 }
%struct.CPpmd8_Node_ = type { i32, i32, i32 }

; Function Attrs: nounwind uwtable
define internal void @SplitBlock(ptr noundef %0, ptr noundef %1, i32 noundef %2, i32 noundef %3) #0 {
  %5 = alloca ptr, align 8
  %6 = alloca ptr, align 8
  %7 = alloca i32, align 4
  %8 = alloca i32, align 4
  %9 = alloca i32, align 4
  %10 = alloca i32, align 4
  %11 = alloca i32, align 4
  store ptr %0, ptr %5, align 8, !tbaa !4
  store ptr %1, ptr %6, align 8, !tbaa !4
  store i32 %2, ptr %7, align 4, !tbaa !15
  store i32 %3, ptr %8, align 4, !tbaa !15
  call void @llvm.lifetime.start.p0(i64 4, ptr %9) #6
  call void @llvm.lifetime.start.p0(i64 4, ptr %10) #6
  %12 = load ptr, ptr %5, align 8, !tbaa !4
  %13 = getelementptr inbounds nuw %struct.CPpmd8, ptr %12, i32 0, i32 22
  %14 = load i32, ptr %7, align 4, !tbaa !15
  %15 = zext i32 %14 to i64
  %16 = getelementptr inbounds nuw [38 x i8], ptr %13, i64 0, i64 %15
  %17 = load i8, ptr %16, align 1, !tbaa !16
  %18 = zext i8 %17 to i32
  %19 = load ptr, ptr %5, align 8, !tbaa !4
  %20 = getelementptr inbounds nuw %struct.CPpmd8, ptr %19, i32 0, i32 22
  %21 = load i32, ptr %8, align 4, !tbaa !15
  %22 = zext i32 %21 to i64
  %23 = getelementptr inbounds nuw [38 x i8], ptr %20, i64 0, i64 %22
  %24 = load i8, ptr %23, align 1, !tbaa !16
  %25 = zext i8 %24 to i32
  %26 = sub nsw i32 %18, %25
  store i32 %26, ptr %10, align 4, !tbaa !15
  %27 = load ptr, ptr %6, align 8, !tbaa !4
  %28 = load ptr, ptr %5, align 8, !tbaa !4
  %29 = getelementptr inbounds nuw %struct.CPpmd8, ptr %28, i32 0, i32 22
  %30 = load i32, ptr %8, align 4, !tbaa !15
  %31 = zext i32 %30 to i64
  %32 = getelementptr inbounds nuw [38 x i8], ptr %29, i64 0, i64 %31
  %33 = load i8, ptr %32, align 1, !tbaa !16
  %34 = zext i8 %33 to i32
  %35 = mul i32 %34, 12
  %36 = zext i32 %35 to i64
  %37 = getelementptr inbounds nuw i8, ptr %27, i64 %36
  store ptr %37, ptr %6, align 8, !tbaa !4
  %38 = load ptr, ptr %5, align 8, !tbaa !4
  %39 = getelementptr inbounds nuw %struct.CPpmd8, ptr %38, i32 0, i32 22
  %40 = load ptr, ptr %5, align 8, !tbaa !4
  %41 = getelementptr inbounds nuw %struct.CPpmd8, ptr %40, i32 0, i32 23
  %42 = load i32, ptr %10, align 4, !tbaa !15
  %43 = sub i32 %42, 1
  %44 = zext i32 %43 to i64
  %45 = getelementptr inbounds nuw [128 x i8], ptr %41, i64 0, i64 %44
  %46 = load i8, ptr %45, align 1, !tbaa !16
  %47 = zext i8 %46 to i32
  store i32 %47, ptr %9, align 4, !tbaa !15
  %48 = zext i32 %47 to i64
  %49 = getelementptr inbounds nuw [38 x i8], ptr %39, i64 0, i64 %48
  %50 = load i8, ptr %49, align 1, !tbaa !16
  %51 = zext i8 %50 to i32
  %52 = load i32, ptr %10, align 4, !tbaa !15
  %53 = icmp ne i32 %51, %52
  br i1 %53, label %54, label %73

54:                                               ; preds = %4
  call void @llvm.lifetime.start.p0(i64 4, ptr %11) #6
  %55 = load ptr, ptr %5, align 8, !tbaa !4
  %56 = getelementptr inbounds nuw %struct.CPpmd8, ptr %55, i32 0, i32 22
  %57 = load i32, ptr %9, align 4, !tbaa !15
  %58 = add i32 %57, -1
  store i32 %58, ptr %9, align 4, !tbaa !15
  %59 = zext i32 %58 to i64
  %60 = getelementptr inbounds nuw [38 x i8], ptr %56, i64 0, i64 %59
  %61 = load i8, ptr %60, align 1, !tbaa !16
  %62 = zext i8 %61 to i32
  store i32 %62, ptr %11, align 4, !tbaa !15
  %63 = load ptr, ptr %5, align 8, !tbaa !4
  %64 = load ptr, ptr %6, align 8, !tbaa !4
  %65 = load i32, ptr %11, align 4, !tbaa !15
  %66 = mul i32 %65, 12
  %67 = zext i32 %66 to i64
  %68 = getelementptr inbounds nuw i8, ptr %64, i64 %67
  %69 = load i32, ptr %10, align 4, !tbaa !15
  %70 = load i32, ptr %11, align 4, !tbaa !15
  %71 = sub i32 %69, %70
  %72 = sub i32 %71, 1
  call void @InsertNode(ptr noundef %63, ptr noundef %68, i32 noundef %72)
  call void @llvm.lifetime.end.p0(i64 4, ptr %11) #6
  br label %73

73:                                               ; preds = %54, %4
  %74 = load ptr, ptr %5, align 8, !tbaa !4
  %75 = load ptr, ptr %6, align 8, !tbaa !4
  %76 = load i32, ptr %9, align 4, !tbaa !15
  call void @InsertNode(ptr noundef %74, ptr noundef %75, i32 noundef %76)
  call void @llvm.lifetime.end.p0(i64 4, ptr %10) #6
  call void @llvm.lifetime.end.p0(i64 4, ptr %9) #6
  ret void
}

; Function Attrs: nounwind uwtable
define internal void @InsertNode(ptr noundef %0, ptr noundef %1, i32 noundef %2) #0 {
  %4 = alloca ptr, align 8
  %5 = alloca ptr, align 8
  %6 = alloca i32, align 4
  store ptr %0, ptr %4, align 8, !tbaa !4
  store ptr %1, ptr %5, align 8, !tbaa !4
  store i32 %2, ptr %6, align 4, !tbaa !15
  %7 = load ptr, ptr %5, align 8, !tbaa !4
  %8 = getelementptr inbounds nuw %struct.CPpmd8_Node_, ptr %7, i32 0, i32 0
  store i32 -1, ptr %8, align 4, !tbaa !97
  %9 = load ptr, ptr %4, align 8, !tbaa !4
  %10 = getelementptr inbounds nuw %struct.CPpmd8, ptr %9, i32 0, i32 24
  %11 = load i32, ptr %6, align 4, !tbaa !15
  %12 = zext i32 %11 to i64
  %13 = getelementptr inbounds nuw [38 x i32], ptr %10, i64 0, i64 %12
  %14 = load i32, ptr %13, align 4, !tbaa !15
  %15 = load ptr, ptr %5, align 8, !tbaa !4
  %16 = getelementptr inbounds nuw %struct.CPpmd8_Node_, ptr %15, i32 0, i32 1
  store i32 %14, ptr %16, align 4, !tbaa !99
  %17 = load ptr, ptr %4, align 8, !tbaa !4
  %18 = getelementptr inbounds nuw %struct.CPpmd8, ptr %17, i32 0, i32 22
  %19 = load i32, ptr %6, align 4, !tbaa !15
  %20 = zext i32 %19 to i64
  %21 = getelementptr inbounds nuw [38 x i8], ptr %18, i64 0, i64 %20
  %22 = load i8, ptr %21, align 1, !tbaa !16
  %23 = zext i8 %22 to i32
  %24 = load ptr, ptr %5, align 8, !tbaa !4
  %25 = getelementptr inbounds nuw %struct.CPpmd8_Node_, ptr %24, i32 0, i32 2
  store i32 %23, ptr %25, align 4, !tbaa !100
  %26 = load ptr, ptr %5, align 8, !tbaa !4
  %27 = load ptr, ptr %4, align 8, !tbaa !4
  %28 = getelementptr inbounds nuw %struct.CPpmd8, ptr %27, i32 0, i32 11
  %29 = load ptr, ptr %28, align 8, !tbaa !8
  %30 = ptrtoint ptr %26 to i64
  %31 = ptrtoint ptr %29 to i64
  %32 = sub i64 %30, %31
  %33 = trunc i64 %32 to i32
  %34 = load ptr, ptr %4, align 8, !tbaa !4
  %35 = getelementptr inbounds nuw %struct.CPpmd8, ptr %34, i32 0, i32 24
  %36 = load i32, ptr %6, align 4, !tbaa !15
  %37 = zext i32 %36 to i64
  %38 = getelementptr inbounds nuw [38 x i32], ptr %35, i64 0, i64 %37
  store i32 %33, ptr %38, align 4, !tbaa !15
  %39 = load ptr, ptr %4, align 8, !tbaa !4
  %40 = getelementptr inbounds nuw %struct.CPpmd8, ptr %39, i32 0, i32 25
  %41 = load i32, ptr %6, align 4, !tbaa !15
  %42 = zext i32 %41 to i64
  %43 = getelementptr inbounds nuw [38 x i32], ptr %40, i64 0, i64 %42
  %44 = load i32, ptr %43, align 4, !tbaa !15
  %45 = add i32 %44, 1
  store i32 %45, ptr %43, align 4, !tbaa !15
  ret void
}

; Function Attrs: nounwind uwtable
define internal ptr @RemoveNode(ptr noundef %0, i32 noundef %1) #0 {
  %3 = alloca ptr, align 8
  %4 = alloca i32, align 4
  %5 = alloca ptr, align 8
  store ptr %0, ptr %3, align 8, !tbaa !4
  store i32 %1, ptr %4, align 4, !tbaa !15
  call void @llvm.lifetime.start.p0(i64 8, ptr %5) #6
  %6 = load ptr, ptr %3, align 8, !tbaa !4
  %7 = getelementptr inbounds nuw %struct.CPpmd8, ptr %6, i32 0, i32 11
  %8 = load ptr, ptr %7, align 8, !tbaa !8
  %9 = load ptr, ptr %3, align 8, !tbaa !4
  %10 = getelementptr inbounds nuw %struct.CPpmd8, ptr %9, i32 0, i32 24
  %11 = load i32, ptr %4, align 4, !tbaa !15
  %12 = zext i32 %11 to i64
  %13 = getelementptr inbounds nuw [38 x i32], ptr %10, i64 0, i64 %12
  %14 = load i32, ptr %13, align 4, !tbaa !15
  %15 = zext i32 %14 to i64
  %16 = getelementptr inbounds nuw i8, ptr %8, i64 %15
  store ptr %16, ptr %5, align 8, !tbaa !102
  %17 = load ptr, ptr %5, align 8, !tbaa !102
  %18 = getelementptr inbounds nuw %struct.CPpmd8_Node_, ptr %17, i32 0, i32 1
  %19 = load i32, ptr %18, align 4, !tbaa !99
  %20 = load ptr, ptr %3, align 8, !tbaa !4
  %21 = getelementptr inbounds nuw %struct.CPpmd8, ptr %20, i32 0, i32 24
  %22 = load i32, ptr %4, align 4, !tbaa !15
  %23 = zext i32 %22 to i64
  %24 = getelementptr inbounds nuw [38 x i32], ptr %21, i64 0, i64 %23
  store i32 %19, ptr %24, align 4, !tbaa !15
  %25 = load ptr, ptr %3, align 8, !tbaa !4
  %26 = getelementptr inbounds nuw %struct.CPpmd8, ptr %25, i32 0, i32 25
  %27 = load i32, ptr %4, align 4, !tbaa !15
  %28 = zext i32 %27 to i64
  %29 = getelementptr inbounds nuw [38 x i32], ptr %26, i64 0, i64 %28
  %30 = load i32, ptr %29, align 4, !tbaa !15
  %31 = add i32 %30, -1
  store i32 %31, ptr %29, align 4, !tbaa !15
  %32 = load ptr, ptr %5, align 8, !tbaa !102
  call void @llvm.lifetime.end.p0(i64 8, ptr %5) #6
  ret ptr %32
}

; Function Attrs: nounwind uwtable
define internal ptr @ShrinkUnits(ptr noundef %0, ptr noundef %1, i32 noundef %2, i32 noundef %3) #0 {
  %5 = alloca ptr, align 8
  %6 = alloca ptr, align 8
  %7 = alloca ptr, align 8
  %8 = alloca i32, align 4
  %9 = alloca i32, align 4
  %10 = alloca i32, align 4
  %11 = alloca i32, align 4
  %12 = alloca i32, align 4
  %13 = alloca ptr, align 8
  %14 = alloca ptr, align 8
  %15 = alloca ptr, align 8
  %16 = alloca i32, align 4
  store ptr %0, ptr %6, align 8, !tbaa !4
  store ptr %1, ptr %7, align 8, !tbaa !4
  store i32 %2, ptr %8, align 4, !tbaa !15
  store i32 %3, ptr %9, align 4, !tbaa !15
  call void @llvm.lifetime.start.p0(i64 4, ptr %10) #6
  %17 = load ptr, ptr %6, align 8, !tbaa !4
  %18 = getelementptr inbounds nuw %struct.CPpmd8, ptr %17, i32 0, i32 23
  %19 = load i32, ptr %8, align 4, !tbaa !15
  %20 = sub i32 %19, 1
  %21 = zext i32 %20 to i64
  %22 = getelementptr inbounds nuw [128 x i8], ptr %18, i64 0, i64 %21
  %23 = load i8, ptr %22, align 1, !tbaa !16
  %24 = zext i8 %23 to i32
  store i32 %24, ptr %10, align 4, !tbaa !15
  call void @llvm.lifetime.start.p0(i64 4, ptr %11) #6
  %25 = load ptr, ptr %6, align 8, !tbaa !4
  %26 = getelementptr inbounds nuw %struct.CPpmd8, ptr %25, i32 0, i32 23
  %27 = load i32, ptr %9, align 4, !tbaa !15
  %28 = sub i32 %27, 1
  %29 = zext i32 %28 to i64
  %30 = getelementptr inbounds nuw [128 x i8], ptr %26, i64 0, i64 %29
  %31 = load i8, ptr %30, align 1, !tbaa !16
  %32 = zext i8 %31 to i32
  store i32 %32, ptr %11, align 4, !tbaa !15
  %33 = load i32, ptr %10, align 4, !tbaa !15
  %34 = load i32, ptr %11, align 4, !tbaa !15
  %35 = icmp eq i32 %33, %34
  br i1 %35, label %36, label %38

36:                                               ; preds = %4
  %37 = load ptr, ptr %7, align 8, !tbaa !4
  store ptr %37, ptr %5, align 8
  store i32 1, ptr %12, align 4
  br label %88

38:                                               ; preds = %4
  %39 = load ptr, ptr %6, align 8, !tbaa !4
  %40 = getelementptr inbounds nuw %struct.CPpmd8, ptr %39, i32 0, i32 24
  %41 = load i32, ptr %11, align 4, !tbaa !15
  %42 = zext i32 %41 to i64
  %43 = getelementptr inbounds nuw [38 x i32], ptr %40, i64 0, i64 %42
  %44 = load i32, ptr %43, align 4, !tbaa !15
  %45 = icmp ne i32 %44, 0
  br i1 %45, label %46, label %82

46:                                               ; preds = %38
  call void @llvm.lifetime.start.p0(i64 8, ptr %13) #6
  %47 = load ptr, ptr %6, align 8, !tbaa !4
  %48 = load i32, ptr %11, align 4, !tbaa !15
  %49 = call ptr @RemoveNode(ptr noundef %47, i32 noundef %48)
  store ptr %49, ptr %13, align 8, !tbaa !4
  call void @llvm.lifetime.start.p0(i64 8, ptr %14) #6
  %50 = load ptr, ptr %13, align 8, !tbaa !4
  store ptr %50, ptr %14, align 8, !tbaa !64
  call void @llvm.lifetime.start.p0(i64 8, ptr %15) #6
  %51 = load ptr, ptr %7, align 8, !tbaa !4
  store ptr %51, ptr %15, align 8, !tbaa !64
  call void @llvm.lifetime.start.p0(i64 4, ptr %16) #6
  %52 = load i32, ptr %9, align 4, !tbaa !15
  store i32 %52, ptr %16, align 4, !tbaa !15
  br label %53

53:                                               ; preds = %73, %46
  %54 = load ptr, ptr %15, align 8, !tbaa !64
  %55 = getelementptr inbounds i32, ptr %54, i64 0
  %56 = load i32, ptr %55, align 4, !tbaa !15
  %57 = load ptr, ptr %14, align 8, !tbaa !64
  %58 = getelementptr inbounds i32, ptr %57, i64 0
  store i32 %56, ptr %58, align 4, !tbaa !15
  %59 = load ptr, ptr %15, align 8, !tbaa !64
  %60 = getelementptr inbounds i32, ptr %59, i64 1
  %61 = load i32, ptr %60, align 4, !tbaa !15
  %62 = load ptr, ptr %14, align 8, !tbaa !64
  %63 = getelementptr inbounds i32, ptr %62, i64 1
  store i32 %61, ptr %63, align 4, !tbaa !15
  %64 = load ptr, ptr %15, align 8, !tbaa !64
  %65 = getelementptr inbounds i32, ptr %64, i64 2
  %66 = load i32, ptr %65, align 4, !tbaa !15
  %67 = load ptr, ptr %14, align 8, !tbaa !64
  %68 = getelementptr inbounds i32, ptr %67, i64 2
  store i32 %66, ptr %68, align 4, !tbaa !15
  %69 = load ptr, ptr %15, align 8, !tbaa !64
  %70 = getelementptr inbounds i32, ptr %69, i64 3
  store ptr %70, ptr %15, align 8, !tbaa !64
  %71 = load ptr, ptr %14, align 8, !tbaa !64
  %72 = getelementptr inbounds i32, ptr %71, i64 3
  store ptr %72, ptr %14, align 8, !tbaa !64
  br label %73

73:                                               ; preds = %53
  %74 = load i32, ptr %16, align 4, !tbaa !15
  %75 = add i32 %74, -1
  store i32 %75, ptr %16, align 4, !tbaa !15
  %76 = icmp ne i32 %75, 0
  br i1 %76, label %53, label %77, !llvm.loop !101

77:                                               ; preds = %73
  call void @llvm.lifetime.end.p0(i64 4, ptr %16) #6
  call void @llvm.lifetime.end.p0(i64 8, ptr %15) #6
  call void @llvm.lifetime.end.p0(i64 8, ptr %14) #6
  %78 = load ptr, ptr %6, align 8, !tbaa !4
  %79 = load ptr, ptr %7, align 8, !tbaa !4
  %80 = load i32, ptr %10, align 4, !tbaa !15
  call void @InsertNode(ptr noundef %78, ptr noundef %79, i32 noundef %80)
  %81 = load ptr, ptr %13, align 8, !tbaa !4
  store ptr %81, ptr %5, align 8
  store i32 1, ptr %12, align 4
  call void @llvm.lifetime.end.p0(i64 8, ptr %13) #6
  br label %88

82:                                               ; preds = %38
  %83 = load ptr, ptr %6, align 8, !tbaa !4
  %84 = load ptr, ptr %7, align 8, !tbaa !4
  %85 = load i32, ptr %10, align 4, !tbaa !15
  %86 = load i32, ptr %11, align 4, !tbaa !15
  call void @SplitBlock(ptr noundef %83, ptr noundef %84, i32 noundef %85, i32 noundef %86)
  %87 = load ptr, ptr %7, align 8, !tbaa !4
  store ptr %87, ptr %5, align 8
  store i32 1, ptr %12, align 4
  br label %88

88:                                               ; preds = %82, %77, %36
  call void @llvm.lifetime.end.p0(i64 4, ptr %11) #6
  call void @llvm.lifetime.end.p0(i64 4, ptr %10) #6
  %89 = load ptr, ptr %5, align 8
  ret ptr %89
}