; Function Attrs: nofree norecurse nosync nounwind memory(readwrite, inaccessiblemem: none) uwtable
define internal fastcc ptr @ShrinkUnits(ptr noundef captures(none) %0, ptr noundef %1, i32 noundef range(i32 1, 130) %2, i32 noundef range(i32 1, 129) %3) unnamed_addr #9 {
  %5 = getelementptr inbounds nuw i8, ptr %0, i64 166
  %6 = add nsw i32 %2, -1
  %7 = zext nneg i32 %6 to i64
  %8 = getelementptr inbounds nuw [128 x i8], ptr %5, i64 0, i64 %7
  %9 = load i8, ptr %8, align 1, !tbaa !14
  %10 = add nsw i32 %3, -1
  %11 = zext nneg i32 %10 to i64
  %12 = getelementptr inbounds nuw [128 x i8], ptr %5, i64 0, i64 %11
  %13 = load i8, ptr %12, align 1, !tbaa !14
  %14 = icmp eq i8 %9, %13
  br i1 %14, label %123, label %15

15:                                               ; preds = %4
  %16 = getelementptr inbounds nuw i8, ptr %0, i64 296
  %17 = zext i8 %13 to i64
  %18 = getelementptr inbounds nuw [38 x i32], ptr %16, i64 0, i64 %17
  %19 = load i32, ptr %18, align 4, !tbaa !62
  %.not = icmp eq i32 %19, 0
  br i1 %.not, label %59, label %20

20:                                               ; preds = %15
  %21 = getelementptr inbounds nuw i8, ptr %0, i64 56
  %22 = load ptr, ptr %21, align 8, !tbaa !4
  %23 = zext i32 %19 to i64
  %24 = getelementptr inbounds nuw i8, ptr %22, i64 %23
  %25 = getelementptr inbounds nuw i8, ptr %24, i64 4
  %26 = load i32, ptr %25, align 4, !tbaa !70
  store i32 %26, ptr %18, align 4, !tbaa !62
  %27 = getelementptr inbounds nuw i8, ptr %0, i64 448
  %28 = getelementptr inbounds nuw [38 x i32], ptr %27, i64 0, i64 %17
  %29 = load i32, ptr %28, align 4, !tbaa !62
  %30 = add i32 %29, -1
  store i32 %30, ptr %28, align 4, !tbaa !62
  br label %31

31:                                               ; preds = %31, %20
  %.033 = phi ptr [ %24, %20 ], [ %40, %31 ]
  %.032 = phi ptr [ %1, %20 ], [ %39, %31 ]
  %.0 = phi i32 [ %3, %20 ], [ %41, %31 ]
  %32 = load i32, ptr %.032, align 4, !tbaa !62
  store i32 %32, ptr %.033, align 4, !tbaa !62
  %33 = getelementptr inbounds nuw i8, ptr %.032, i64 4
  %34 = load i32, ptr %33, align 4, !tbaa !62
  %35 = getelementptr inbounds nuw i8, ptr %.033, i64 4
  store i32 %34, ptr %35, align 4, !tbaa !62
  %36 = getelementptr inbounds nuw i8, ptr %.032, i64 8
  %37 = load i32, ptr %36, align 4, !tbaa !62
  %38 = getelementptr inbounds nuw i8, ptr %.033, i64 8
  store i32 %37, ptr %38, align 4, !tbaa !62
  %39 = getelementptr inbounds nuw i8, ptr %.032, i64 12
  %40 = getelementptr inbounds nuw i8, ptr %.033, i64 12
  %41 = add nsw i32 %.0, -1
  %.not37 = icmp eq i32 %41, 0
  br i1 %.not37, label %42, label %31, !llvm.loop !95

42:                                               ; preds = %31
  store i32 -1, ptr %1, align 4, !tbaa !68
  %43 = zext i8 %9 to i64
  %44 = getelementptr inbounds nuw [38 x i32], ptr %16, i64 0, i64 %43
  %45 = load i32, ptr %44, align 4, !tbaa !62
  %46 = getelementptr inbounds nuw i8, ptr %1, i64 4
  store i32 %45, ptr %46, align 4, !tbaa !70
  %47 = getelementptr inbounds nuw i8, ptr %0, i64 128
  %48 = getelementptr inbounds nuw [38 x i8], ptr %47, i64 0, i64 %43
  %49 = load i8, ptr %48, align 1, !tbaa !14
  %50 = zext i8 %49 to i32
  %51 = getelementptr inbounds nuw i8, ptr %1, i64 8
  store i32 %50, ptr %51, align 4, !tbaa !71
  %52 = ptrtoint ptr %1 to i64
  %53 = ptrtoint ptr %22 to i64
  %54 = sub i64 %52, %53
  %55 = trunc i64 %54 to i32
  store i32 %55, ptr %44, align 4, !tbaa !62
  %56 = getelementptr inbounds nuw [38 x i32], ptr %27, i64 0, i64 %43
  %57 = load i32, ptr %56, align 4, !tbaa !62
  %58 = add i32 %57, 1
  store i32 %58, ptr %56, align 4, !tbaa !62
  br label %123

59:                                               ; preds = %15
  %60 = getelementptr inbounds nuw i8, ptr %0, i64 128
  %61 = zext i8 %9 to i64
  %62 = getelementptr inbounds nuw [38 x i8], ptr %60, i64 0, i64 %61
  %63 = load i8, ptr %62, align 1, !tbaa !14
  %64 = zext i8 %63 to i32
  %65 = getelementptr inbounds nuw [38 x i8], ptr %60, i64 0, i64 %17
  %66 = load i8, ptr %65, align 1, !tbaa !14
  %67 = zext i8 %66 to i32
  %68 = sub nsw i32 %64, %67
  %69 = mul nuw nsw i32 %67, 12
  %70 = zext nneg i32 %69 to i64
  %71 = getelementptr inbounds nuw i8, ptr %1, i64 %70
  %72 = add nsw i32 %68, -1
  %73 = zext i32 %72 to i64
  %74 = getelementptr inbounds nuw [128 x i8], ptr %5, i64 0, i64 %73
  %75 = load i8, ptr %74, align 1, !tbaa !14
  %76 = zext i8 %75 to i64
  %77 = getelementptr inbounds nuw [38 x i8], ptr %60, i64 0, i64 %76
  %78 = load i8, ptr %77, align 1, !tbaa !14
  %79 = zext i8 %78 to i32
  %.not.i = icmp eq i32 %68, %79
  br i1 %.not.i, label %._crit_edge.i, label %80

._crit_edge.i:                                    ; preds = %59
  %.phi.trans.insert.i = getelementptr inbounds nuw i8, ptr %0, i64 56
  %.pre.i = load ptr, ptr %.phi.trans.insert.i, align 8, !tbaa !4
  %.pre22.i = ptrtoint ptr %.pre.i to i64
  br label %SplitBlock.exit

80:                                               ; preds = %59
  %81 = add nuw nsw i64 %76, 4294967295
  %82 = and i64 %81, 4294967295
  %83 = getelementptr inbounds nuw [38 x i8], ptr %60, i64 0, i64 %82
  %84 = load i8, ptr %83, align 1, !tbaa !14
  %85 = zext i8 %84 to i32
  %86 = mul nuw nsw i32 %85, 12
  %87 = zext nneg i32 %86 to i64
  %88 = getelementptr inbounds nuw i8, ptr %71, i64 %87
  %89 = xor i32 %85, -1
  %90 = add nsw i32 %68, %89
  store i32 -1, ptr %88, align 4, !tbaa !68
  %91 = zext i32 %90 to i64
  %92 = getelementptr inbounds nuw [38 x i32], ptr %16, i64 0, i64 %91
  %93 = load i32, ptr %92, align 4, !tbaa !62
  %94 = getelementptr inbounds nuw i8, ptr %88, i64 4
  store i32 %93, ptr %94, align 4, !tbaa !70
  %95 = getelementptr inbounds nuw [38 x i8], ptr %60, i64 0, i64 %91
  %96 = load i8, ptr %95, align 1, !tbaa !14
  %97 = zext i8 %96 to i32
  %98 = getelementptr inbounds nuw i8, ptr %88, i64 8
  store i32 %97, ptr %98, align 4, !tbaa !71
  %99 = getelementptr inbounds nuw i8, ptr %0, i64 56
  %100 = load ptr, ptr %99, align 8, !tbaa !4
  %101 = ptrtoint ptr %88 to i64
  %102 = ptrtoint ptr %100 to i64
  %103 = sub i64 %101, %102
  %104 = trunc i64 %103 to i32
  store i32 %104, ptr %92, align 4, !tbaa !62
  %105 = getelementptr inbounds nuw i8, ptr %0, i64 448
  %106 = getelementptr inbounds nuw [38 x i32], ptr %105, i64 0, i64 %91
  %107 = load i32, ptr %106, align 4, !tbaa !62
  %108 = add i32 %107, 1
  store i32 %108, ptr %106, align 4, !tbaa !62
  br label %SplitBlock.exit

SplitBlock.exit:                                  ; preds = %._crit_edge.i, %80
  %.pre-phi23.i = phi i64 [ %.pre22.i, %._crit_edge.i ], [ %102, %80 ]
  %.pre-phi.i = phi i64 [ %76, %._crit_edge.i ], [ %82, %80 ]
  store i32 -1, ptr %71, align 4, !tbaa !68
  %109 = getelementptr inbounds nuw [38 x i32], ptr %16, i64 0, i64 %.pre-phi.i
  %110 = load i32, ptr %109, align 4, !tbaa !62
  %111 = getelementptr inbounds nuw i8, ptr %71, i64 4
  store i32 %110, ptr %111, align 4, !tbaa !70
  %112 = getelementptr inbounds nuw [38 x i8], ptr %60, i64 0, i64 %.pre-phi.i
  %113 = load i8, ptr %112, align 1, !tbaa !14
  %114 = zext i8 %113 to i32
  %115 = getelementptr inbounds nuw i8, ptr %71, i64 8
  store i32 %114, ptr %115, align 4, !tbaa !71
  %116 = ptrtoint ptr %71 to i64
  %117 = sub i64 %116, %.pre-phi23.i
  %118 = trunc i64 %117 to i32
  store i32 %118, ptr %109, align 4, !tbaa !62
  %119 = getelementptr inbounds nuw i8, ptr %0, i64 448
  %120 = getelementptr inbounds nuw [38 x i32], ptr %119, i64 0, i64 %.pre-phi.i
  %121 = load i32, ptr %120, align 4, !tbaa !62
  %122 = add i32 %121, 1
  store i32 %122, ptr %120, align 4, !tbaa !62
  br label %123

123:                                              ; preds = %4, %SplitBlock.exit, %42
  %.034 = phi ptr [ %24, %42 ], [ %1, %SplitBlock.exit ], [ %1, %4 ]
  ret ptr %.034
}